target datalayout = "e-m:e-p270:32:32-p271:32:32-p272:64:64-i64:64-i128:128-f80:128-n8:16:32:64-S128"
target triple = "x86_64-pc-linux-gnu"

%"class.folly::EventHandler" = type { ptr, %"class.folly::EventBaseEvent", ptr }
%"class.folly::EventBaseEvent" = type { %struct.event, ptr, ptr, ptr, %"struct.folly::EventCallback" }
%struct.event = type { %struct.event_callback, %union.anon.0, i32, ptr, %union.anon.2, i16, i16, %struct.timeval }
%struct.event_callback = type { %struct.anon, i16, i8, i8, %union.anon, ptr }
%struct.anon = type { ptr, ptr }
%union.anon = type { ptr }
%union.anon.0 = type { %struct.anon.1 }
%struct.anon.1 = type { ptr, ptr }
%union.anon.2 = type { %struct.anon.3 }
%struct.anon.3 = type { %struct.anon.4, %struct.timeval }
%struct.anon.4 = type { ptr, ptr }
%struct.timeval = type { i64, i64 }
%"struct.folly::EventCallback" = type { i32, %union.anon.7 }
%union.anon.7 = type { ptr }
%"class.folly::ExecutionObserverScopeGuard" = type <{ ptr, i64, i32, [4 x i8] }>
%"class.std::__cxx11::basic_string" = type { %"struct.std::__cxx11::basic_string<char>::_Alloc_hider", i64, %union.anon.8 }
%"struct.std::__cxx11::basic_string<char>::_Alloc_hider" = type { ptr }
%union.anon.8 = type { i64, [8 x i8] }
%"class.folly::EventBase" = type { %"class.folly::TimeoutManager", %"class.folly::DrivableExecutor", %"class.folly::IOExecutor", %"class.folly::SequencedExecutor", %"class.folly::ScheduledExecutor", %"class.folly::GetThreadIdCollector", %"class.std::chrono::duration", i8, %"class.std::chrono::duration", i8, [7 x i8], %"class.std::optional", %"struct.std::atomic", %"struct.std::atomic.13", %"class.std::unique_ptr.14", %"class.boost::intrusive::list", %"class.boost::intrusive::list", %"class.boost::intrusive::list", %"struct.folly::Synchronized", %"struct.folly::Synchronized", ptr, %"struct.std::atomic.30", %"class.std::unique_ptr.32", %"struct.std::atomic.40", i8, %"class.std::chrono::duration.42", %"class.folly::EventBase::SmoothLoopTime", %"class.folly::EventBase::SmoothLoopTime", i8, %"class.folly::Function", i64, i64, %"class.std::chrono::time_point", %"class.std::shared_ptr", i32, %"class.boost::intrusive::list.44", %"class.std::__cxx11::basic_string", %"class.folly::F14FastMap", %"struct.folly::Synchronized.53", %"class.folly::basic_once_flag", %"class.std::unique_ptr.72", %"class.std::unique_ptr.80", %"class.std::unique_ptr.88", [8 x i8] }
%"class.folly::TimeoutManager" = type { ptr, %"class.std::unique_ptr" }
%"class.std::unique_ptr" = type { %"struct.std::__uniq_ptr_data" }
%"struct.std::__uniq_ptr_data" = type { %"class.std::__uniq_ptr_impl" }
%"class.std::__uniq_ptr_impl" = type { %"class.std::tuple" }
%"class.std::tuple" = type { %"struct.std::_Tuple_impl" }
%"struct.std::_Tuple_impl" = type { %"struct.std::_Head_base.11" }
%"struct.std::_Head_base.11" = type { ptr }
%"class.folly::DrivableExecutor" = type { %"class.folly::Executor" }
%"class.folly::Executor" = type { ptr }
%"class.folly::IOExecutor" = type { %"class.folly::Executor" }
%"class.folly::SequencedExecutor" = type { %"class.folly::Executor" }
%"class.folly::ScheduledExecutor" = type { %"class.folly::Executor" }
%"class.folly::GetThreadIdCollector" = type { ptr }
%"class.std::chrono::duration" = type { i64 }
%"class.std::optional" = type { %"struct.std::_Optional_base" }
%"struct.std::_Optional_base" = type { %"struct.std::_Optional_payload" }
%"struct.std::_Optional_payload" = type { %"struct.std::_Optional_payload_base.base", [7 x i8] }
%"struct.std::_Optional_payload_base.base" = type <{ %"union.std::_Optional_payload_base<folly::EventBase::LoopState>::_Storage", i8 }>
%"union.std::_Optional_payload_base<folly::EventBase::LoopState>::_Storage" = type { %"struct.folly::EventBase::LoopState" }
%"struct.folly::EventBase::LoopState" = type { %"class.std::chrono::time_point", %"class.std::chrono::time_point" }
%"struct.std::atomic" = type { %"struct.std::__atomic_base" }
%"struct.std::__atomic_base" = type { i32 }
%"struct.std::atomic.13" = type { %"class.std::thread::id" }
%"class.std::thread::id" = type { i64 }
%"class.std::unique_ptr.14" = type { %"struct.std::__uniq_ptr_data.15" }
%"struct.std::__uniq_ptr_data.15" = type { %"class.std::__uniq_ptr_impl.16" }
%"class.std::__uniq_ptr_impl.16" = type { %"class.std::tuple.17" }
%"class.std::tuple.17" = type { %"struct.std::_Tuple_impl.18" }
%"struct.std::_Tuple_impl.18" = type { %"struct.std::_Head_base.21" }
%"struct.std::_Head_base.21" = type { ptr }
%"class.boost::intrusive::list" = type { %"class.boost::intrusive::list_impl" }
%"class.boost::intrusive::list_impl" = type { %"struct.boost::intrusive::list_impl<boost::intrusive::bhtraits<folly::EventBase::LoopCallback, boost::intrusive::list_node_traits<void *>, boost::intrusive::auto_unlink, boost::intrusive::dft_tag, 1>, unsigned long, false, void>::data_t" }
%"struct.boost::intrusive::list_impl<boost::intrusive::bhtraits<folly::EventBase::LoopCallback, boost::intrusive::list_node_traits<void *>, boost::intrusive::auto_unlink, boost::intrusive::dft_tag, 1>, unsigned long, false, void>::data_t" = type { %"struct.boost::intrusive::list_impl<boost::intrusive::bhtraits<folly::EventBase::LoopCallback, boost::intrusive::list_node_traits<void *>, boost::intrusive::auto_unlink, boost::intrusive::dft_tag, 1>, unsigned long, false, void>::root_plus_size" }
%"struct.boost::intrusive::list_impl<boost::intrusive::bhtraits<folly::EventBase::LoopCallback, boost::intrusive::list_node_traits<void *>, boost::intrusive::auto_unlink, boost::intrusive::dft_tag, 1>, unsigned long, false, void>::root_plus_size" = type { %"struct.boost::intrusive::detail::default_header_holder" }
%"struct.boost::intrusive::detail::default_header_holder" = type { %"struct.boost::intrusive::list_node" }
%"struct.boost::intrusive::list_node" = type { ptr, ptr }
%"struct.folly::Synchronized" = type <{ %"class.boost::intrusive::list.23", %"class.folly::SharedMutexImpl", [4 x i8] }>
%"class.boost::intrusive::list.23" = type { %"class.boost::intrusive::list_impl.24" }
%"class.boost::intrusive::list_impl.24" = type { %"struct.boost::intrusive::list_impl<boost::intrusive::bhtraits<folly::EventBase::OnDestructionCallback, boost::intrusive::list_node_traits<void *>, boost::intrusive::normal_link, boost::intrusive::dft_tag, 1>, unsigned long, true, void>::data_t" }
%"struct.boost::intrusive::list_impl<boost::intrusive::bhtraits<folly::EventBase::OnDestructionCallback, boost::intrusive::list_node_traits<void *>, boost::intrusive::normal_link, boost::intrusive::dft_tag, 1>, unsigned long, true, void>::data_t" = type { %"struct.boost::intrusive::list_impl<boost::intrusive::bhtraits<folly::EventBase::OnDestructionCallback, boost::intrusive::list_node_traits<void *>, boost::intrusive::normal_link, boost::intrusive::dft_tag, 1>, unsigned long, true, void>::root_plus_size" }
%"struct.boost::intrusive::list_impl<boost::intrusive::bhtraits<folly::EventBase::OnDestructionCallback, boost::intrusive::list_node_traits<void *>, boost::intrusive::normal_link, boost::intrusive::dft_tag, 1>, unsigned long, true, void>::root_plus_size" = type { %"struct.boost::intrusive::detail::size_holder.27", %"struct.boost::intrusive::detail::default_header_holder" }
%"struct.boost::intrusive::detail::size_holder.27" = type { i64 }
%"class.folly::SharedMutexImpl" = type { %"struct.std::atomic.28" }
%"struct.std::atomic.28" = type { %"struct.std::__atomic_base.29" }
%"struct.std::__atomic_base.29" = type { i32 }
%"struct.std::atomic.30" = type { %"struct.std::__atomic_base.31" }
%"struct.std::__atomic_base.31" = type { i8 }
%"class.std::unique_ptr.32" = type { %"struct.std::__uniq_ptr_data.33" }
%"struct.std::__uniq_ptr_data.33" = type { %"class.std::__uniq_ptr_impl.34" }
%"class.std::__uniq_ptr_impl.34" = type { %"class.std::tuple.35" }
%"class.std::tuple.35" = type { %"struct.std::_Tuple_impl.36" }
%"struct.std::_Tuple_impl.36" = type { %"struct.std::_Head_base.39" }
%"struct.std::_Head_base.39" = type { ptr }
%"struct.std::atomic.40" = type { %"struct.std::__atomic_base.41" }
%"struct.std::__atomic_base.41" = type { i64 }
%"class.std::chrono::duration.42" = type { i64 }
%"class.folly::EventBase::SmoothLoopTime" = type { double, double, %"class.std::chrono::duration.42", %"class.std::chrono::duration.42", i64 }
%"class.folly::Function" = type { %"union.folly::detail::function::Data", ptr, ptr }
%"union.folly::detail::function::Data" = type { %"struct.folly::detail::function::Data::BigTrivialLayout", [24 x i8] }
%"struct.folly::detail::function::Data::BigTrivialLayout" = type { ptr, i64, i64 }
%"class.std::chrono::time_point" = type { %"class.std::chrono::duration.12" }
%"class.std::chrono::duration.12" = type { i64 }
%"class.std::shared_ptr" = type { %"class.std::__shared_ptr" }
%"class.std::__shared_ptr" = type { ptr, %"class.std::__shared_count" }
%"class.std::__shared_count" = type { ptr }
%"class.boost::intrusive::list.44" = type { %"class.boost::intrusive::list_impl.45" }
%"class.boost::intrusive::list_impl.45" = type { %"struct.boost::intrusive::list_impl<boost::intrusive::bhtraits<folly::ExecutionObserver, boost::intrusive::list_node_traits<void *>, boost::intrusive::auto_unlink, boost::intrusive::dft_tag, 1>, unsigned long, false, void>::data_t" }
%"struct.boost::intrusive::list_impl<boost::intrusive::bhtraits<folly::ExecutionObserver, boost::intrusive::list_node_traits<void *>, boost::intrusive::auto_unlink, boost::intrusive::dft_tag, 1>, unsigned long, false, void>::data_t" = type { %"struct.boost::intrusive::list_impl<boost::intrusive::bhtraits<folly::ExecutionObserver, boost::intrusive::list_node_traits<void *>, boost::intrusive::auto_unlink, boost::intrusive::dft_tag, 1>, unsigned long, false, void>::root_plus_size" }
%"struct.boost::intrusive::list_impl<boost::intrusive::bhtraits<folly::ExecutionObserver, boost::intrusive::list_node_traits<void *>, boost::intrusive::auto_unlink, boost::intrusive::dft_tag, 1>, unsigned long, false, void>::root_plus_size" = type { %"struct.boost::intrusive::detail::default_header_holder" }
%"class.folly::F14FastMap" = type { %"class.folly::f14::detail::F14VectorMapImpl" }
%"class.folly::f14::detail::F14VectorMapImpl" = type { %"class.folly::f14::detail::F14BasicMap" }
%"class.folly::f14::detail::F14BasicMap" = type { %"class.folly::f14::detail::F14Table" }
%"class.folly::f14::detail::F14Table" = type { %"class.folly::f14::detail::VectorContainerPolicy", ptr, %"struct.folly::f14::detail::SizeAndChunkShiftAndPackedBegin" }
%"class.folly::f14::detail::VectorContainerPolicy" = type { ptr }
%"struct.folly::f14::detail::SizeAndChunkShiftAndPackedBegin" = type { %"struct.folly::f14::detail::PackedSizeAndChunkShift" }
%"struct.folly::f14::detail::PackedSizeAndChunkShift" = type { i64 }
%"struct.folly::Synchronized.53" = type <{ %"class.folly::F14FastSet", %"class.folly::SharedMutexImpl", [4 x i8] }>
%"class.folly::F14FastSet" = type { %"class.folly::F14ValueSet" }
%"class.folly::F14ValueSet" = type { %"class.folly::f14::detail::F14BasicSet" }
%"class.folly::f14::detail::F14BasicSet" = type { %"class.folly::f14::detail::F14Table.56" }
%"class.folly::f14::detail::F14Table.56" = type { ptr, %"struct.folly::f14::detail::SizeAndChunkShiftAndPackedBegin.70" }
%"struct.folly::f14::detail::SizeAndChunkShiftAndPackedBegin.70" = type { %"struct.folly::f14::detail::PackedSizeAndChunkShift", %"class.folly::f14::detail::PackedChunkItemPtr" }
%"class.folly::f14::detail::PackedChunkItemPtr" = type { i64 }
%"class.folly::basic_once_flag" = type { %"struct.std::atomic.30", %"class.folly::SharedMutexImpl" }
%"class.std::unique_ptr.72" = type { %"struct.std::__uniq_ptr_data.73" }
%"struct.std::__uniq_ptr_data.73" = type { %"class.std::__uniq_ptr_impl.74" }
%"class.std::__uniq_ptr_impl.74" = type { %"class.std::tuple.75" }
%"class.std::tuple.75" = type { %"struct.std::_Tuple_impl.76" }
%"struct.std::_Tuple_impl.76" = type { %"struct.std::_Head_base.79" }
%"struct.std::_Head_base.79" = type { ptr }
%"class.std::unique_ptr.80" = type { %"struct.std::__uniq_ptr_data.81" }
%"struct.std::__uniq_ptr_data.81" = type { %"class.std::__uniq_ptr_impl.82" }
%"class.std::__uniq_ptr_impl.82" = type { %"class.std::tuple.83" }
%"class.std::tuple.83" = type { %"struct.std::_Tuple_impl.84" }
%"struct.std::_Tuple_impl.84" = type { %"struct.std::_Head_base.87" }
%"struct.std::_Head_base.87" = type { ptr }
%"class.std::unique_ptr.88" = type { %"struct.std::__uniq_ptr_data.89" }
%"struct.std::__uniq_ptr_data.89" = type { %"class.std::__uniq_ptr_impl.90" }
%"class.std::__uniq_ptr_impl.90" = type { %"class.std::tuple.91" }
%"class.std::tuple.91" = type { %"struct.std::_Tuple_impl.92" }
%"struct.std::_Tuple_impl.92" = type { %"struct.std::_Head_base.95" }
%"struct.std::_Head_base.95" = type { ptr }

; Function Attrs: mustprogress nounwind uwtable
define linkonce_odr noundef nonnull align 8 dereferenceable(16) ptr @_ZN5folly9EventBase24getExecutionObserverListEv(ptr noundef nonnull align 16 dereferenceable(632) %0) #0 comdat align 2 {
  %2 = alloca ptr, align 8
  store ptr %0, ptr %2, align 8, !tbaa !12
  %3 = load ptr, ptr %2, align 8
  %4 = getelementptr inbounds nuw %"class.folly::EventBase", ptr %3, i32 0, i32 35
  ret ptr %4
}

; Function Attrs: mustprogress uwtable
define void @_ZN5folly12EventHandler16libeventCallbackEisPv(i32 noundef %0, i16 noundef signext %1, ptr noundef %2) #1 align 2 {
  %4 = alloca i32, align 4
  %5 = alloca i16, align 2
  %6 = alloca ptr, align 8
  %7 = alloca ptr, align 8
  %8 = alloca %"class.folly::ExecutionObserverScopeGuard", align 8
  store i32 %0, ptr %4, align 4, !tbaa !38
  store i16 %1, ptr %5, align 2, !tbaa !39
  store ptr %2, ptr %6, align 8, !tbaa !40
  call void @llvm.lifetime.start.p0(i64 8, ptr %7) #14
  %9 = load ptr, ptr %6, align 8, !tbaa !40
  store ptr %9, ptr %7, align 8, !tbaa !7
  %10 = load ptr, ptr %7, align 8, !tbaa !7
  %11 = getelementptr inbounds nuw %"class.folly::EventHandler", ptr %10, i32 0, i32 2
  %12 = load ptr, ptr %11, align 8, !tbaa !19
  call void @_ZN5folly9EventBase16bumpHandlingTimeEv(ptr noundef nonnull align 16 dereferenceable(632) %12)
  call void @llvm.lifetime.start.p0(i64 24, ptr %8) #14
  %13 = load ptr, ptr %7, align 8, !tbaa !7
  %14 = getelementptr inbounds nuw %"class.folly::EventHandler", ptr %13, i32 0, i32 2
  %15 = load ptr, ptr %14, align 8, !tbaa !19
  %16 = call noundef nonnull align 8 dereferenceable(16) ptr @_ZN5folly9EventBase24getExecutionObserverListEv(ptr noundef nonnull align 16 dereferenceable(632) %15)
  %17 = load ptr, ptr %7, align 8, !tbaa !7
  %18 = getelementptr inbounds nuw %"class.folly::EventHandler", ptr %17, i32 0, i32 2
  call void @_ZN5folly27ExecutionObserverScopeGuardC1EPN5boost9intrusive4listINS_17ExecutionObserverEJNS2_18constant_time_sizeILb0EEEEEEPvNS4_12CallbackTypeE(ptr noundef nonnull align 8 dereferenceable(20) %8, ptr noundef %16, ptr noundef %18, i32 noundef 0)
  %19 = load ptr, ptr %7, align 8, !tbaa !7
  %20 = load i16, ptr %5, align 2, !tbaa !39
  %21 = load ptr, ptr %19, align 8, !tbaa !14
  %22 = getelementptr inbounds ptr, ptr %21, i64 2
  %23 = load ptr, ptr %22, align 8
  call void %23(ptr noundef nonnull align 8 dereferenceable(184) %19, i16 noundef zeroext %20) #14
  call void @_ZN5folly27ExecutionObserverScopeGuardD1Ev(ptr noundef nonnull align 8 dereferenceable(20) %8) #14
  call void @llvm.lifetime.end.p0(i64 24, ptr %8) #14
  call void @llvm.lifetime.end.p0(i64 8, ptr %7) #14
  ret void
}