; Function Attrs: mustprogress uwtable
define void @_ZN5folly12EventHandler16libeventCallbackEisPv(i32 %0, i16 noundef signext %1, ptr noundef %2) #1 align 2 {
  %4 = alloca %"class.folly::ExecutionObserverScopeGuard", align 8
  %5 = getelementptr inbounds nuw i8, ptr %2, i64 176
  %6 = load ptr, ptr %5, align 8, !tbaa !10
  tail call void @_ZN5folly9EventBase16bumpHandlingTimeEv(ptr noundef nonnull align 16 dereferenceable(632) %6)
  call void @llvm.lifetime.start.p0(i64 24, ptr nonnull %4) #17
  %7 = load ptr, ptr %5, align 8, !tbaa !10
  %8 = getelementptr inbounds nuw i8, ptr %7, i64 496
  call void @_ZN5folly27ExecutionObserverScopeGuardC1EPN5boost9intrusive4listINS_17ExecutionObserverEJNS2_18constant_time_sizeILb0EEEEEEPvNS4_12CallbackTypeE(ptr noundef nonnull align 8 dereferenceable(20) %4, ptr noundef nonnull %8, ptr noundef nonnull %5, i32 noundef 0)
  %9 = load ptr, ptr %2, align 8, !tbaa !7
  %10 = getelementptr inbounds nuw i8, ptr %9, i64 16
  %11 = load ptr, ptr %10, align 8
  call void %11(ptr noundef nonnull align 8 dereferenceable(184) %2, i16 noundef zeroext %1) #17
  call void @_ZN5folly27ExecutionObserverScopeGuardD1Ev(ptr noundef nonnull align 8 dereferenceable(20) %4) #17
  call void @llvm.lifetime.end.p0(i64 24, ptr nonnull %4) #17
  ret void
}